; Function Attrs: mustprogress nounwind uwtable
define hidden void @_ZN14MacroAssembler4fmadE11XMMRegisterS0_S0_S0_(ptr noundef nonnull align 8 dereferenceable(40) %0, i32 %1, i32 %2, i32 %3, i32 %4) local_unnamed_addr #0 align 2 {
  tail call void @_ZN9Assembler11vfmadd231sdE11XMMRegisterS0_S0_(ptr noundef nonnull align 8 dereferenceable(40) %0, i32 %4, i32 %2, i32 %3) #18
  %.not12 = icmp eq i32 %1, %4
  br i1 %.not12, label %_ZN14MacroAssembler6movdblE11XMMRegisterS0_.exit, label %6

6:                                                ; preds = %5
  %7 = sext i32 %1 to i64
  %8 = getelementptr inbounds %"class.XMMRegister::XMMRegisterImpl", ptr getelementptr inbounds (i8, ptr @all_XMMRegisterImpls, i64 1), i64 %7
  %9 = ptrtoint ptr %8 to i64
  %10 = trunc i64 %9 to i32
  %11 = sext i32 %4 to i64
  %12 = getelementptr inbounds %"class.XMMRegister::XMMRegisterImpl", ptr getelementptr inbounds (i8, ptr @all_XMMRegisterImpls, i64 1), i64 %11
  %13 = ptrtoint ptr %12 to i64
  %14 = trunc i64 %13 to i32
  %15 = icmp eq i32 %10, %14
  br i1 %15, label %_ZN14MacroAssembler6movdblE11XMMRegisterS0_.exit, label %16

16:                                               ; preds = %6
  %17 = load i8, ptr @UseXmmRegToRegMoveAll, align 1
  %18 = trunc i8 %17 to i1
  br i1 %18, label %19, label %20

19:                                               ; preds = %16
  tail call void @_ZN9Assembler6movapdE11XMMRegisterS0_(ptr noundef nonnull align 8 dereferenceable(40) %0, i32 %1, i32 %4) #18
  br label %_ZN14MacroAssembler6movdblE11XMMRegisterS0_.exit

20:                                               ; preds = %16
  tail call void @_ZN9Assembler5movsdE11XMMRegisterS0_(ptr noundef nonnull align 8 dereferenceable(40) %0, i32 %1, i32 %4) #18
  br label %_ZN14MacroAssembler6movdblE11XMMRegisterS0_.exit

_ZN14MacroAssembler6movdblE11XMMRegisterS0_.exit: ; preds = %20, %19, %6, %5
  ret void
}